target datalayout = "e-m:e-p270:32:32-p271:32:32-p272:64:64-i64:64-i128:128-f80:128-n8:16:32:64-S128"
target triple = "x86_64-pc-linux-gnu"

%struct.jv = type { i8, i8, i16, i32, %union.anon }
%union.anon = type { ptr }
%struct.timeval = type { i64, i64 }

; Function Attrs: nounwind uwtable
define internal { i64, ptr } @f_now(ptr noundef %0, i64 %1, ptr %2) #0 {
  %4 = alloca %struct.jv, align 8
  %5 = alloca %struct.jv, align 8
  %6 = alloca ptr, align 8
  %7 = alloca %struct.timeval, align 8
  %8 = alloca i32, align 4
  %9 = getelementptr inbounds nuw { i64, ptr }, ptr %5, i32 0, i32 0
  store i64 %1, ptr %9, align 8
  %10 = getelementptr inbounds nuw { i64, ptr }, ptr %5, i32 0, i32 1
  store ptr %2, ptr %10, align 8
  store ptr %0, ptr %6, align 8, !tbaa !25
  %11 = getelementptr inbounds nuw { i64, ptr }, ptr %5, i32 0, i32 0
  %12 = load i64, ptr %11, align 8
  %13 = getelementptr inbounds nuw { i64, ptr }, ptr %5, i32 0, i32 1
  %14 = load ptr, ptr %13, align 8
  call void @jv_free(i64 %12, ptr %14)
  call void @llvm.lifetime.start.p0(i64 16, ptr %7) #10
  %15 = call i32 @gettimeofday(ptr noundef %7, ptr noundef null) #10
  %16 = icmp eq i32 %15, -1
  br i1 %16, label %17, label %25

17:                                               ; preds = %3
  %18 = call i64 @time(ptr noundef null) #10
  %19 = sitofp i64 %18 to double
  %20 = call { i64, ptr } @jv_number(double noundef %19)
  %21 = getelementptr inbounds nuw { i64, ptr }, ptr %4, i32 0, i32 0
  %22 = extractvalue { i64, ptr } %20, 0
  store i64 %22, ptr %21, align 8
  %23 = getelementptr inbounds nuw { i64, ptr }, ptr %4, i32 0, i32 1
  %24 = extractvalue { i64, ptr } %20, 1
  store ptr %24, ptr %23, align 8
  store i32 1, ptr %8, align 4
  br label %39

25:                                               ; preds = %3
  %26 = getelementptr inbounds nuw %struct.timeval, ptr %7, i32 0, i32 0
  %27 = load i64, ptr %26, align 8, !tbaa !86
  %28 = sitofp i64 %27 to double
  %29 = getelementptr inbounds nuw %struct.timeval, ptr %7, i32 0, i32 1
  %30 = load i64, ptr %29, align 8, !tbaa !88
  %31 = sitofp i64 %30 to double
  %32 = fdiv double %31, 1.000000e+06
  %33 = fadd double %28, %32
  %34 = call { i64, ptr } @jv_number(double noundef %33)
  %35 = getelementptr inbounds nuw { i64, ptr }, ptr %4, i32 0, i32 0
  %36 = extractvalue { i64, ptr } %34, 0
  store i64 %36, ptr %35, align 8
  %37 = getelementptr inbounds nuw { i64, ptr }, ptr %4, i32 0, i32 1
  %38 = extractvalue { i64, ptr } %34, 1
  store ptr %38, ptr %37, align 8
  store i32 1, ptr %8, align 4
  br label %39

39:                                               ; preds = %25, %17
  call void @llvm.lifetime.end.p0(i64 16, ptr %7) #10
  %40 = load { i64, ptr }, ptr %4, align 8
  ret { i64, ptr } %40
}