; Function Attrs: nounwind uwtable
define internal { i64, ptr } @f_now(ptr readnone captures(none) %0, i64 %1, ptr %2) #0 {
  %4 = alloca %struct.timeval, align 8
  tail call void @jv_free(i64 %1, ptr %2) #14
  call void @llvm.lifetime.start.p0(i64 16, ptr nonnull %4) #14
  %5 = call i32 @gettimeofday(ptr noundef nonnull %4, ptr noundef null) #14
  %6 = icmp eq i32 %5, -1
  br i1 %6, label %7, label %10

7:                                                ; preds = %3
  %8 = tail call i64 @time(ptr noundef null) #14
  %9 = sitofp i64 %8 to double
  br label %18

10:                                               ; preds = %3
  %11 = load i64, ptr %4, align 8, !tbaa !67
  %12 = sitofp i64 %11 to double
  %13 = getelementptr inbounds nuw i8, ptr %4, i64 8
  %14 = load i64, ptr %13, align 8, !tbaa !69
  %15 = sitofp i64 %14 to double
  %16 = fdiv double %15, 1.000000e+06
  %17 = fadd double %16, %12
  br label %18

18:                                               ; preds = %10, %7
  %.sink = phi double [ %17, %10 ], [ %9, %7 ]
  %19 = tail call { i64, ptr } @jv_number(double noundef %.sink) #14
  call void @llvm.lifetime.end.p0(i64 16, ptr nonnull %4) #14
  ret { i64, ptr } %19
}